target datalayout = "e-m:e-p270:32:32-p271:32:32-p272:64:64-i64:64-i128:128-f80:128-n8:16:32:64-S128"
target triple = "x86_64-pc-linux-gnu"

; Function Attrs: mustprogress uwtable
define void @_Z17gmx_calc_comg_pbcPK10gmx_mtop_tPA3_fPK5t_pbciPKibPf(ptr noundef %0, ptr noundef %1, ptr noundef %2, i32 noundef %3, ptr noundef %4, i1 noundef zeroext %5, ptr noundef %6) #0 {
  %8 = alloca ptr, align 8
  %9 = alloca ptr, align 8
  %10 = alloca ptr, align 8
  %11 = alloca i32, align 4
  %12 = alloca ptr, align 8
  %13 = alloca i8, align 1
  %14 = alloca ptr, align 8
  store ptr %0, ptr %8, align 8, !tbaa !4
  store ptr %1, ptr %9, align 8, !tbaa !9
  store ptr %2, ptr %10, align 8, !tbaa !83
  store i32 %3, ptr %11, align 4, !tbaa !11
  store ptr %4, ptr %12, align 8, !tbaa !13
  %15 = zext i1 %5 to i8
  store i8 %15, ptr %13, align 1, !tbaa !80
  store ptr %6, ptr %14, align 8, !tbaa !9
  %16 = load i8, ptr %13, align 1, !tbaa !80, !range !81, !noundef !82
  %17 = trunc i8 %16 to i1
  br i1 %17, label %18, label %25

18:                                               ; preds = %7
  %19 = load ptr, ptr %8, align 8, !tbaa !4
  %20 = load ptr, ptr %9, align 8, !tbaa !9
  %21 = load ptr, ptr %10, align 8, !tbaa !83
  %22 = load i32, ptr %11, align 4, !tbaa !11
  %23 = load ptr, ptr %12, align 8, !tbaa !13
  %24 = load ptr, ptr %14, align 8, !tbaa !9
  call void @_Z16gmx_calc_com_pbcPK10gmx_mtop_tPA3_fPK5t_pbciPKiPf(ptr noundef %19, ptr noundef %20, ptr noundef %21, i32 noundef %22, ptr noundef %23, ptr noundef %24)
  br label %32

25:                                               ; preds = %7
  %26 = load ptr, ptr %8, align 8, !tbaa !4
  %27 = load ptr, ptr %9, align 8, !tbaa !9
  %28 = load ptr, ptr %10, align 8, !tbaa !83
  %29 = load i32, ptr %11, align 4, !tbaa !11
  %30 = load ptr, ptr %12, align 8, !tbaa !13
  %31 = load ptr, ptr %14, align 8, !tbaa !9
  call void @_Z16gmx_calc_cog_pbcPK10gmx_mtop_tPA3_fPK5t_pbciPKiPf(ptr noundef %26, ptr noundef %27, ptr noundef %28, i32 noundef %29, ptr noundef %30, ptr noundef %31)
  br label %32

32:                                               ; preds = %25, %18
  ret void
}