; Function Attrs: mustprogress uwtable
define void @_Z17gmx_calc_comg_pbcPK10gmx_mtop_tPA3_fPK5t_pbciPKibPf(ptr noundef %0, ptr noundef %1, ptr noundef %2, i32 noundef %3, ptr noundef readonly captures(none) %4, i1 noundef zeroext %5, ptr noundef %6) local_unnamed_addr #2 {
  br i1 %5, label %8, label %9

8:                                                ; preds = %7
  tail call void @_Z16gmx_calc_com_pbcPK10gmx_mtop_tPA3_fPK5t_pbciPKiPf(ptr noundef %0, ptr noundef %1, ptr noundef %2, i32 noundef %3, ptr noundef %4, ptr noundef %6)
  br label %10

9:                                                ; preds = %7
  tail call void @_Z16gmx_calc_cog_pbcPK10gmx_mtop_tPA3_fPK5t_pbciPKiPf(ptr poison, ptr noundef %1, ptr noundef %2, i32 noundef %3, ptr noundef %4, ptr noundef %6)
  br label %10

10:                                               ; preds = %9, %8
  ret void
}